; Function Attrs: mustprogress nounwind uwtable
define void @_ZN6google8protobuf2io16FileOutputStreamD2Ev(ptr noundef nonnull align 8 dereferenceable(72) %this) unnamed_addr #4 align 2 personality ptr @__gxx_personality_v0 {
entry:
  %call = invoke noundef zeroext i1 @_ZN6google8protobuf2io26CopyingOutputStreamAdaptor5FlushEv(ptr noundef nonnull align 8 dereferenceable(48) %this)
          to label %invoke.cont unwind label %terminate.lpad

invoke.cont:                                      ; preds = %entry
  %copying_output_ = getelementptr inbounds i8, ptr %this, i64 48
  tail call void @_ZN6google8protobuf2io16FileOutputStream23CopyingFileOutputStreamD1Ev(ptr noundef nonnull align 8 dereferenceable(24) %copying_output_) #16
  tail call void @_ZN6google8protobuf2io26CopyingOutputStreamAdaptorD2Ev(ptr noundef nonnull align 8 dereferenceable(48) %this) #16
  ret void

terminate.lpad:                                   ; preds = %entry
  %0 = landingpad { ptr, i32 }
          catch ptr null
  %1 = extractvalue { ptr, i32 } %0, 0
  tail call void @__clang_call_terminate(ptr %1) #18
  unreachable
}